target datalayout = "e-m:e-p270:32:32-p271:32:32-p272:64:64-i64:64-i128:128-f80:128-n8:16:32:64-S128"
target triple = "x86_64-pc-linux-gnu"

@.str.8089 = private unnamed_addr constant [19 x i8] c"RSRQ < -19.5dB (0)\00", align 1
@.str.8090 = private unnamed_addr constant [29 x i8] c"%.1fdB <= RSRQ < %.1fdB (%u)\00", align 1
@.str.8091 = private unnamed_addr constant [18 x i8] c"-3dB <= RSRQ (34)\00", align 1

; Function Attrs: null_pointer_is_valid sspstrong uwtable
define internal void @lpp_rsrq_Result_fmt(ptr noundef %0, i32 noundef %1) #0 {
  %3 = alloca ptr, align 8
  %4 = alloca i32, align 4
  store ptr %0, ptr %3, align 8
  store i32 %1, ptr %4, align 4
  %5 = load i32, ptr %4, align 4
  %6 = icmp eq i32 %5, 0
  br i1 %6, label %7, label %12

7:                                                ; preds = %2
  %8 = load ptr, ptr %3, align 8
  %9 = load ptr, ptr %3, align 8
  %10 = call i64 @llvm.objectsize.i64.p0(ptr %9, i1 false, i1 true, i1 true)
  %11 = call i32 (ptr, i64, i32, i64, ptr, ...) @__snprintf_chk(ptr noundef %8, i64 noundef 240, i32 noundef 2, i64 noundef %10, ptr noundef @.str.8089)
  br label %38

12:                                               ; preds = %2
  %13 = load i32, ptr %4, align 4
  %14 = icmp ult i32 %13, 34
  br i1 %14, label %15, label %32

15:                                               ; preds = %12
  %16 = load ptr, ptr %3, align 8
  %17 = load ptr, ptr %3, align 8
  %18 = call i64 @llvm.objectsize.i64.p0(ptr %17, i1 false, i1 true, i1 true)
  %19 = load i32, ptr %4, align 4
  %20 = uitofp i32 %19 to float
  %21 = fdiv float %20, 2.000000e+00
  %22 = fsub float %21, 2.000000e+01
  %23 = fpext float %22 to double
  %24 = load i32, ptr %4, align 4
  %25 = uitofp i32 %24 to float
  %26 = fadd float %25, 1.000000e+00
  %27 = fdiv float %26, 2.000000e+00
  %28 = fsub float %27, 2.000000e+01
  %29 = fpext float %28 to double
  %30 = load i32, ptr %4, align 4
  %31 = call i32 (ptr, i64, i32, i64, ptr, ...) @__snprintf_chk(ptr noundef %16, i64 noundef 240, i32 noundef 2, i64 noundef %18, ptr noundef @.str.8090, double noundef %23, double noundef %29, i32 noundef %30)
  br label %37

32:                                               ; preds = %12
  %33 = load ptr, ptr %3, align 8
  %34 = load ptr, ptr %3, align 8
  %35 = call i64 @llvm.objectsize.i64.p0(ptr %34, i1 false, i1 true, i1 true)
  %36 = call i32 (ptr, i64, i32, i64, ptr, ...) @__snprintf_chk(ptr noundef %33, i64 noundef 240, i32 noundef 2, i64 noundef %35, ptr noundef @.str.8091)
  br label %37

37:                                               ; preds = %32, %15
  br label %38

38:                                               ; preds = %37, %7
  ret void
}