; Function Attrs: nofree null_pointer_is_valid sspstrong uwtable
define internal void @lpp_rsrq_Result_fmt(ptr noundef %0, i32 noundef %1) #3 {
  %3 = icmp eq i32 %1, 0
  br i1 %3, label %4, label %6

4:                                                ; preds = %2
  %5 = tail call i32 (ptr, i64, i32, i64, ptr, ...) @__snprintf_chk(ptr noundef %0, i64 noundef 240, i32 noundef 2, i64 noundef -1, ptr noundef nonnull @.str.8089)
  br label %20

6:                                                ; preds = %2
  %7 = icmp ult i32 %1, 34
  br i1 %7, label %8, label %18

8:                                                ; preds = %6
  %9 = uitofp nneg i32 %1 to float
  %10 = fmul float %9, 5.000000e-01
  %11 = fadd float %10, -2.000000e+01
  %12 = fpext float %11 to double
  %13 = fadd float %9, 1.000000e+00
  %14 = fmul float %13, 5.000000e-01
  %15 = fadd float %14, -2.000000e+01
  %16 = fpext float %15 to double
  %17 = tail call i32 (ptr, i64, i32, i64, ptr, ...) @__snprintf_chk(ptr noundef %0, i64 noundef 240, i32 noundef 2, i64 noundef -1, ptr noundef nonnull @.str.8090, double noundef %12, double noundef %16, i32 noundef %1)
  br label %20

18:                                               ; preds = %6
  %19 = tail call i32 (ptr, i64, i32, i64, ptr, ...) @__snprintf_chk(ptr noundef %0, i64 noundef 240, i32 noundef 2, i64 noundef -1, ptr noundef nonnull @.str.8091)
  br label %20

20:                                               ; preds = %8, %18, %4
  ret void
}